; Function Attrs: mustprogress uwtable
define void @_ZN10open_spiel10algorithms12AsTensorGameEPKNS_4GameE(ptr dead_on_unwind noalias nocapture writable writeonly sret(%"class.std::shared_ptr") align 8 %0, ptr noundef %1) local_unnamed_addr #3 personality ptr @__gxx_personality_v0 {
  %3 = alloca %"class.std::__cxx11::basic_string", align 8
  %4 = alloca i32, align 4
  %5 = icmp eq ptr %1, null
  br i1 %5, label %.thread, label %6

6:                                                ; preds = %2
  %7 = tail call ptr @__dynamic_cast(ptr nonnull %1, ptr nonnull @_ZTIN10open_spiel4GameE, ptr nonnull @_ZTIN10open_spiel14NormalFormGameE, i64 0) #21
  %.not = icmp eq ptr %7, null
  br i1 %.not, label %.thread, label %11

.thread:                                          ; preds = %2, %6
  store i32 45, ptr %4, align 4
  call void @_ZN10open_spiel8internal11SpielStrCatIJRA141_KcRA2_S2_iRA13_S2_RA4_S2_S6_EEENSt7__cxx1112basic_stringIcSt11char_traitsIcESaIcEEEDpOT_(ptr dead_on_unwind nonnull writable sret(%"class.std::__cxx11::basic_string") align 8 %3, ptr noundef nonnull align 1 dereferenceable(141) @.str.2, ptr noundef nonnull align 1 dereferenceable(2) @.str.3, ptr noundef nonnull align 4 dereferenceable(4) %4, ptr noundef nonnull align 1 dereferenceable(13) @.str.4, ptr noundef nonnull align 1 dereferenceable(4) @.str.5, ptr noundef nonnull align 1 dereferenceable(2) @.str.6)
  invoke void @_ZN10open_spiel15SpielFatalErrorERKNSt7__cxx1112basic_stringIcSt11char_traitsIcESaIcEEE(ptr noundef nonnull align 8 dereferenceable(32) %3) #22
          to label %8 unwind label %9

8:                                                ; preds = %.thread
  unreachable

9:                                                ; preds = %.thread
  %10 = landingpad { ptr, i32 }
          cleanup
  call void @_ZNSt7__cxx1112basic_stringIcSt11char_traitsIcESaIcEED1Ev(ptr noundef nonnull align 8 dereferenceable(32) %3) #21
  resume { ptr, i32 } %10

11:                                               ; preds = %6
  tail call void @_ZN10open_spiel10algorithms12AsTensorGameEPKNS_14NormalFormGameE(ptr dead_on_unwind writable sret(%"class.std::shared_ptr") align 8 %0, ptr noundef nonnull %7)
  ret void
}